Certificate:
    Data:
        Version: 3 (0x2)
        Serial Number:
            72:8f:e3:ae:67:08:fd:c9:df:4b:92:97:a9:70:7f:9d
        Signature Algorithm: sha256WithRSAEncryption
        Issuer: CN=ECCEE CA
        Validity
            Not Before: Sep  5 11:48:31 2022 GMT
            Not After : Dec  8 11:48:31 2024 GMT
        Subject: CN=client1
        Subject Public Key Info:
            Public Key Algorithm: rsaEncryption
                RSA Public-Key: (2048 bit)
                Modulus:
                    00:db:86:b4:24:77:86:7b:60:fb:66:69:39:d4:6e:
                    28:3d:e7:81:ad:d2:4e:bb:3b:61:b5:c9:99:1a:86:
                    2c:7c:69:90:3f:bb:38:a0:2b:6b:76:63:02:65:ef:
                    46:6e:06:43:7f:19:39:fd:a4:15:45:e5:6f:71:77:
                    b6:41:2e:62:97:7b:17:ed:b8:64:19:c1:38:d7:8f:
                    c0:2a:d3:80:21:7e:e6:fd:af:51:83:82:43:de:75:
                    1e:57:75:03:87:f2:d1:85:c3:40:d9:55:2d:e0:81:
                    9b:4a:0c:45:13:5d:5a:23:49:ad:bb:cb:00:09:40:
                    ce:0a:9d:70:d7:f8:5a:18:c1:19:1b:a3:b8:97:8f:
                    06:71:a2:96:cb:19:11:e4:0c:cd:45:29:03:ba:d0:
                    7a:ab:b1:b9:a2:06:0d:f6:25:69:7c:0e:b7:7e:e8:
                    77:87:9e:bf:ee:69:f9:33:bc:5e:5d:fd:47:79:be:
                    aa:3e:41:14:4f:18:8b:d9:f6:a9:8b:8c:42:20:cd:
                    a6:c9:1d:a4:7a:b1:9e:a5:e5:9d:09:b3:b3:77:d0:
                    25:2a:46:b9:7d:c4:e3:7e:7d:34:20:42:6c:90:2b:
                    c3:cf:c3:84:dd:97:8c:3d:31:44:5a:07:ec:f1:a0:
                    1f:a8:d2:51:b2:17:c5:ae:50:8a:83:e6:ea:39:c0:
                    8c:6b
                Exponent: 65537 (0x10001)
        X509v3 extensions:
            X509v3 Basic Constraints: 
                CA:FALSE
            X509v3 Subject Key Identifier: 
                E3:2D:97:EE:52:8A:FA:1C:62:A3:3D:60:34:3D:D6:EE:C3:28:71:DC
            X509v3 Authority Key Identifier: 
                keyid:AE:A1:E0:5F:19:D2:09:EE:E5:32:8E:02:69:A7:3F:77:03:8D:C8:52
                DirName:/CN=ECCEE CA
                serial:0B:AF:59:A6:BB:41:AF:F0:9A:12:1D:BA:04:9F:5B:81:B0:DE:B9:3A

            X509v3 Extended Key Usage: 
                TLS Web Client Authentication
            X509v3 Key Usage: 
                Digital Signature
    Signature Algorithm: sha256WithRSAEncryption
         a8:84:4e:8c:86:ee:49:3a:8b:10:f9:c2:3e:d3:33:a8:7c:f4:
         44:9a:48:9c:20:4c:69:b4:d9:b9:94:70:7b:ea:e5:7e:5c:87:
         37:22:2a:1f:1f:28:6f:1f:ce:48:b5:65:5d:96:7b:d5:89:1e:
         1b:7a:c3:a5:54:b2:71:be:3f:3c:0d:d6:29:bf:b5:13:ca:ea:
         05:f6:cd:b0:0f:81:e0:82:8a:01:b2:fe:98:c1:a7:85:7a:d3:
         40:cf:26:8e:16:7f:61:db:ab:4a:8e:7c:f9:15:ac:47:7b:d7:
         54:e2:90:14:47:c5:4c:a2:8a:87:6f:08:db:4e:f3:14:d1:be:
         aa:ec:c3:56:91:39:26:1f:d2:dd:ac:ed:3d:cd:e4:54:1c:45:
         c7:13:6d:a5:34:94:9c:64:be:67:bf:b7:d7:3f:49:37:a6:c5:
         40:4c:32:fc:b2:1b:21:82:77:85:47:19:7b:64:5b:c2:8b:5d:
         e4:64:8d:07:ac:d1:50:ec:32:46:31:ab:b4:89:fd:2d:bc:ac:
         31:12:2b:c3:a3:a0:3a:0e:e9:8c:54:60:33:72:3f:56:d6:7d:
         7a:be:6b:cf:a5:f7:94:50:f5:d6:5b:e0:28:a9:33:ac:17:5c:
         a1:d3:78:11:56:2e:11:78:b9:a9:47:22:d1:67:53:8a:4b:28:
         99:67:0b:89
-----BEGIN CERTIFICATE-----
MIIDTzCCAjegAwIBAgIQco/jrmcI/cnfS5KXqXB/nTANBgkqhkiG9w0BAQsFADAT
MREwDwYDVQQDDAhFQ0NFRSBDQTAeFw0yMjA5MDUxMTQ4MzFaFw0yNDEyMDgxMTQ4
MzFaMBIxEDAOBgNVBAMMB2NsaWVudDEwggEiMA0GCSqGSIb3DQEBAQUAA4IBDwAw
ggEKAoIBAQDbhrQkd4Z7YPtmaTnUbig954Gt0k67O2G1yZkahix8aZA/uzigK2t2
YwJl70ZuBkN/GTn9pBVF5W9xd7ZBLmKXexftuGQZwTjXj8Aq04Ahfub9r1GDgkPe
dR5XdQOH8tGFw0DZVS3ggZtKDEUTXVojSa27ywAJQM4KnXDX+FoYwRkbo7iXjwZx
opbLGRHkDM1FKQO60HqrsbmiBg32JWl8Drd+6HeHnr/uafkzvF5d/Ud5vqo+QRRP
GIvZ9qmLjEIgzabJHaR6sZ6l5Z0Js7N30CUqRrl9xON+fTQgQmyQK8PPw4Tdl4w9
MURaB+zxoB+o0lGyF8WuUIqD5uo5wIxrAgMBAAGjgZ8wgZwwCQYDVR0TBAIwADAd
BgNVHQ4EFgQU4y2X7lKK+hxioz1gND3W7sMocdwwTgYDVR0jBEcwRYAUrqHgXxnS
Ce7lMo4Caac/dwONyFKhF6QVMBMxETAPBgNVBAMMCEVDQ0VFIENBghQLr1mmu0Gv
8JoSHboEn1uBsN65OjATBgNVHSUEDDAKBggrBgEFBQcDAjALBgNVHQ8EBAMCB4Aw
DQYJKoZIhvcNAQELBQADggEBAKiEToyG7kk6ixD5wj7TM6h89ESaSJwgTGm02bmU
cHvq5X5chzciKh8fKG8fzki1ZV2We9WJHht6w6VUsnG+PzwN1im/tRPK6gX2zbAP
geCCigGy/pjBp4V600DPJo4Wf2Hbq0qOfPkVrEd711TikBRHxUyiiodvCNtO8xTR
vqrsw1aROSYf0t2s7T3N5FQcRccTbaU0lJxkvme/t9c/STemxUBMMvyyGyGCd4VH
GXtkW8KLXeRkjQes0VDsMkYxq7SJ/S28rDESK8OjoDoO6YxUYDNyP1bWfXq+a8+l
95RQ9dZb4CipM6wXXKHTeBFWLhF4ualHItFnU4pLKJlnC4k=
-----END CERTIFICATE-----
